; ModuleID = 'source-C-CXX/21/951.c'
source_filename = "source-C-CXX/21/951.c"
target datalayout = "e-m:e-p270:32:32-p271:32:32-p272:64:64-i64:64-f80:128-n8:16:32:64-S128"
target triple = "x86_64-pc-linux-gnu"

@.str = private unnamed_addr constant [3 x i8] c"No\00", align 1
@.str.1 = private unnamed_addr constant [3 x i8] c"%d\00", align 1

; Function Attrs: nounwind sspstrong uwtable
define dso_local i32 @main() local_unnamed_addr #0 {
  %1 = alloca [1600 x i8], align 16
  %2 = alloca [301 x i32], align 16
  %3 = getelementptr inbounds [1600 x i8], [1600 x i8]* %1, i64 0, i64 0
  call void @llvm.lifetime.start.p0i8(i64 1600, i8* nonnull %3) #6
  call void @llvm.memset.p0i8.i64(i8* noundef nonnull align 16 dereferenceable(1600) %3, i8 0, i64 1600, i1 false)
  %4 = call i32 (i8*, ...) bitcast (i32 (...)* @gets to i32 (i8*, ...)*)(i8* nonnull %3) #6
  %5 = bitcast [301 x i32]* %2 to i8*
  call void @llvm.lifetime.start.p0i8(i64 1204, i8* nonnull %5) #6
  call void @llvm.memset.p0i8.i64(i8* noundef nonnull align 16 dereferenceable(1204) %5, i8 0, i64 1204, i1 false)
  %6 = call i64 @strlen(i8* noundef nonnull %3) #7
  %7 = trunc i64 %6 to i32
  %8 = icmp sgt i32 %7, 0
  br i1 %8, label %9, label %39

9:                                                ; preds = %0
  %10 = and i64 %6, 4294967295
  br label %11

11:                                               ; preds = %9, %27
  %12 = phi i64 [ 0, %9 ], [ %29, %27 ]
  %13 = phi i32 [ 0, %9 ], [ %28, %27 ]
  %14 = getelementptr inbounds [1600 x i8], [1600 x i8]* %1, i64 0, i64 %12
  %15 = load i8, i8* %14, align 1, !tbaa !5
  %16 = icmp eq i8 %15, 44
  br i1 %16, label %17, label %19

17:                                               ; preds = %11
  %18 = add nsw i32 %13, 1
  br label %27

19:                                               ; preds = %11
  %20 = sext i8 %15 to i32
  %21 = sext i32 %13 to i64
  %22 = getelementptr inbounds [301 x i32], [301 x i32]* %2, i64 0, i64 %21
  %23 = load i32, i32* %22, align 4, !tbaa !8
  %24 = mul nsw i32 %23, 10
  %25 = add nsw i32 %20, -48
  %26 = add i32 %25, %24
  store i32 %26, i32* %22, align 4, !tbaa !8
  br label %27

27:                                               ; preds = %17, %19
  %28 = phi i32 [ %18, %17 ], [ %13, %19 ]
  %29 = add nuw nsw i64 %12, 1
  %30 = icmp eq i64 %29, %10
  br i1 %30, label %31, label %11, !llvm.loop !10

31:                                               ; preds = %27
  %32 = icmp eq i32 %28, 0
  br i1 %32, label %39, label %33

33:                                               ; preds = %31
  %34 = icmp sgt i32 %28, 0
  br i1 %34, label %35, label %76

35:                                               ; preds = %33
  %36 = zext i32 %28 to i64
  %37 = zext i32 %28 to i64
  %38 = getelementptr inbounds [301 x i32], [301 x i32]* %2, i64 0, i64 %36
  br label %41

39:                                               ; preds = %0, %31
  %40 = call i32 (i8*, ...) @printf(i8* nonnull dereferenceable(1) getelementptr inbounds ([3 x i8], [3 x i8]* @.str, i64 0, i64 0))
  br label %78

41:                                               ; preds = %63, %35
  %42 = phi i64 [ 0, %35 ], [ %64, %63 ]
  %43 = load i32, i32* %38, align 4, !tbaa !8
  br label %51

44:                                               ; preds = %63
  %45 = getelementptr inbounds [301 x i32], [301 x i32]* %2, i64 0, i64 0
  %46 = load i32, i32* %45, align 16
  %47 = icmp slt i32 %28, 1
  br i1 %47, label %76, label %48

48:                                               ; preds = %44
  %49 = add nuw i32 %28, 1
  %50 = zext i32 %49 to i64
  br label %69

51:                                               ; preds = %41, %60
  %52 = phi i32 [ %43, %41 ], [ %61, %60 ]
  %53 = phi i64 [ %36, %41 ], [ %54, %60 ]
  %54 = add nsw i64 %53, -1
  %55 = getelementptr inbounds [301 x i32], [301 x i32]* %2, i64 0, i64 %54
  %56 = load i32, i32* %55, align 4, !tbaa !8
  %57 = icmp sgt i32 %52, %56
  br i1 %57, label %58, label %60

58:                                               ; preds = %51
  %59 = getelementptr inbounds [301 x i32], [301 x i32]* %2, i64 0, i64 %53
  store i32 %56, i32* %59, align 4, !tbaa !8
  store i32 %52, i32* %55, align 4, !tbaa !8
  br label %60

60:                                               ; preds = %51, %58
  %61 = phi i32 [ %56, %51 ], [ %52, %58 ]
  %62 = icmp sgt i64 %54, %42
  br i1 %62, label %51, label %63, !llvm.loop !12

63:                                               ; preds = %60
  %64 = add nuw nsw i64 %42, 1
  %65 = icmp eq i64 %64, %37
  br i1 %65, label %44, label %41, !llvm.loop !13

66:                                               ; preds = %69
  %67 = add nuw nsw i64 %70, 1
  %68 = icmp eq i64 %67, %50
  br i1 %68, label %76, label %69, !llvm.loop !14

69:                                               ; preds = %48, %66
  %70 = phi i64 [ 1, %48 ], [ %67, %66 ]
  %71 = getelementptr inbounds [301 x i32], [301 x i32]* %2, i64 0, i64 %70
  %72 = load i32, i32* %71, align 4, !tbaa !8
  %73 = icmp slt i32 %72, %46
  br i1 %73, label %74, label %66

74:                                               ; preds = %69
  %75 = call i32 (i8*, ...) @printf(i8* nonnull dereferenceable(1) getelementptr inbounds ([3 x i8], [3 x i8]* @.str.1, i64 0, i64 0), i32 %72)
  br label %78

76:                                               ; preds = %66, %33, %44
  %77 = call i32 (i8*, ...) @printf(i8* nonnull dereferenceable(1) getelementptr inbounds ([3 x i8], [3 x i8]* @.str, i64 0, i64 0))
  br label %78

78:                                               ; preds = %74, %76, %39
  call void @llvm.lifetime.end.p0i8(i64 1204, i8* nonnull %5) #6
  call void @llvm.lifetime.end.p0i8(i64 1600, i8* nonnull %3) #6
  ret i32 0
}

; Function Attrs: argmemonly mustprogress nofree nosync nounwind willreturn
declare void @llvm.lifetime.start.p0i8(i64 immarg, i8* nocapture) #1

; Function Attrs: argmemonly mustprogress nofree nounwind willreturn writeonly
declare void @llvm.memset.p0i8.i64(i8* nocapture writeonly, i8, i64, i1 immarg) #2

declare i32 @gets(...) local_unnamed_addr #3

; Function Attrs: argmemonly mustprogress nofree nounwind readonly willreturn
declare i64 @strlen(i8* nocapture) local_unnamed_addr #4

; Function Attrs: nofree nounwind
declare noundef i32 @printf(i8* nocapture noundef readonly, ...) local_unnamed_addr #5

; Function Attrs: argmemonly mustprogress nofree nosync nounwind willreturn
declare void @llvm.lifetime.end.p0i8(i64 immarg, i8* nocapture) #1


!llvm.module.flags = !{!0, !1, !2, !3}
!llvm.ident = !{!4}

!0 = !{i32 1, !"wchar_size", i32 4}
!1 = !{i32 7, !"PIC Level", i32 2}
!2 = !{i32 7, !"PIE Level", i32 2}
!3 = !{i32 7, !"uwtable", i32 1}
!4 = !{!"clang version 13.0.0"}
!5 = !{!6, !6, i64 0}
!6 = !{!"omnipotent char", !7, i64 0}
!7 = !{!"Simple C/C++ TBAA"}
!8 = !{!9, !9, i64 0}
!9 = !{!"int", !6, i64 0}
!10 = distinct !{!10, !11}
!11 = !{!"llvm.loop.mustprogress"}
!12 = distinct !{!12, !11}
!13 = distinct !{!13, !11}
!14 = distinct !{!14, !11}
